target datalayout = "e-m:e-p270:32:32-p271:32:32-p272:64:64-i64:64-i128:128-f80:128-n8:16:32:64-S128"
target triple = "x86_64-pc-linux-gnu"

%struct.Pdr_Man_t_ = type { ptr, ptr, ptr, ptr, ptr, ptr, ptr, ptr, %struct.Vec_Ptr_t_, ptr, i32, i32, ptr, ptr, ptr, ptr, ptr, ptr, i32, i32, ptr, ptr, ptr, i32, i32, ptr, ptr, ptr, ptr, ptr, ptr, ptr, ptr, ptr, ptr, ptr, ptr, ptr, ptr, i32, i32, i32, i32, i32, i32, i32, i32, i32, i32, i32, i32, i32, i32, i32, i32, i32, i64, i64, i64, i64, i64, i64, i64, i64, i64, i64, i64, i64 }
%struct.Vec_Ptr_t_ = type { i32, i32, ptr }
%struct.Vec_Vec_t_ = type { i32, i32, ptr }
%struct.Vec_Int_t_ = type { i32, i32, ptr }
%struct.sat_solver_t = type { i32, i32, i32, i32, %struct.Sat_Mem_t_, i32, i32, ptr, ptr, i32, i32, i32, i32, i32, i64, i64, i64, ptr, ptr, i32, i32, %struct.veci_t, ptr, i32, ptr, ptr, ptr, ptr, ptr, ptr, ptr, ptr, %struct.veci_t, %struct.veci_t, %struct.veci_t, %struct.veci_t, ptr, %struct.veci_t, i32, i32, i32, double, double, i32, i32, i32, %struct.stats_t, i32, i32, i32, i32, i32, i64, i64, i64, %struct.veci_t, ptr, i32, i32, i32, %struct.veci_t, %struct.veci_t, i32, i32, i32, ptr, ptr, i32, ptr, i32, i32, %struct.veci_t, %struct.veci_t, %struct.veci_t, ptr, ptr, i32, ptr }
%struct.Sat_Mem_t_ = type { [2 x i32], [2 x i32], [2 x i32], [2 x i32], i32, i32, i32, i32, ptr }
%struct.stats_t = type { i32, i32, i32, i64, i64, i64, i64, i64, i64, i64 }
%struct.veci_t = type { i32, i32, ptr }
%struct.timespec = type { i64, i64 }

@.str.5 = private unnamed_addr constant [5 x i8] c"Time\00", align 1
@.str.44 = private unnamed_addr constant [35 x i8] c"Verification of clause %d failed.\0A\00", align 1
@.str.45 = private unnamed_addr constant [40 x i8] c"Verification of %d clauses has failed.\0A\00", align 1
@.str.46 = private unnamed_addr constant [60 x i8] c"Verification of invariant with %d clauses was successful.  \00", align 1
@.str.58 = private unnamed_addr constant [5 x i8] c"%s =\00", align 1
@.str.59 = private unnamed_addr constant [11 x i8] c"%9.2f sec\0A\00", align 1

; Function Attrs: nounwind uwtable
define internal ptr @Vec_VecEntry(ptr noundef %0, i32 noundef %1) #0 {
  %3 = alloca ptr, align 8
  %4 = alloca i32, align 4
  store ptr %0, ptr %3, align 8
  store i32 %1, ptr %4, align 4
  %5 = load ptr, ptr %3, align 8
  %6 = getelementptr inbounds %struct.Vec_Vec_t_, ptr %5, i32 0, i32 2
  %7 = load ptr, ptr %6, align 8
  %8 = load i32, ptr %4, align 4
  %9 = sext i32 %8 to i64
  %10 = getelementptr inbounds ptr, ptr %7, i64 %9
  %11 = load ptr, ptr %10, align 8
  ret ptr %11
}

; Function Attrs: nounwind uwtable
define internal void @Vec_PtrFree(ptr noundef %0) #0 {
  %2 = alloca ptr, align 8
  store ptr %0, ptr %2, align 8
  %3 = load ptr, ptr %2, align 8
  %4 = getelementptr inbounds %struct.Vec_Ptr_t_, ptr %3, i32 0, i32 2
  %5 = load ptr, ptr %4, align 8
  %6 = icmp ne ptr %5, null
  br i1 %6, label %7, label %13

7:                                                ; preds = %1
  %8 = load ptr, ptr %2, align 8
  %9 = getelementptr inbounds %struct.Vec_Ptr_t_, ptr %8, i32 0, i32 2
  %10 = load ptr, ptr %9, align 8
  call void @free(ptr noundef %10) #10
  %11 = load ptr, ptr %2, align 8
  %12 = getelementptr inbounds %struct.Vec_Ptr_t_, ptr %11, i32 0, i32 2
  store ptr null, ptr %12, align 8
  br label %14

13:                                               ; preds = %1
  br label %14

14:                                               ; preds = %13, %7
  %15 = load ptr, ptr %2, align 8
  %16 = icmp ne ptr %15, null
  br i1 %16, label %17, label %19

17:                                               ; preds = %14
  %18 = load ptr, ptr %2, align 8
  call void @free(ptr noundef %18) #10
  store ptr null, ptr %2, align 8
  br label %20

19:                                               ; preds = %14
  br label %20

20:                                               ; preds = %19, %17
  ret void
}

; Function Attrs: nounwind uwtable
define internal void @Abc_PrintTime(i32 noundef %0, ptr noundef %1, i64 noundef %2) #0 {
  %4 = alloca i32, align 4
  %5 = alloca ptr, align 8
  %6 = alloca i64, align 8
  store i32 %0, ptr %4, align 4
  store ptr %1, ptr %5, align 8
  store i64 %2, ptr %6, align 8
  %7 = load ptr, ptr %5, align 8
  call void (i32, ptr, ...) @Abc_Print(i32 noundef 1, ptr noundef @.str.58, ptr noundef %7)
  %8 = load i64, ptr %6, align 8
  %9 = sitofp i64 %8 to double
  %10 = fmul double 1.000000e+00, %9
  %11 = fdiv double %10, 1.000000e+06
  call void (i32, ptr, ...) @Abc_Print(i32 noundef 1, ptr noundef @.str.59, double noundef %11)
  ret void
}

; Function Attrs: nounwind uwtable
define internal void @sat_solver_compress(ptr noundef %0) #0 {
  %2 = alloca ptr, align 8
  %3 = alloca i32, align 4
  store ptr %0, ptr %2, align 8
  %4 = load ptr, ptr %2, align 8
  %5 = getelementptr inbounds %struct.sat_solver_t, ptr %4, i32 0, i32 3
  %6 = load i32, ptr %5, align 4
  %7 = load ptr, ptr %2, align 8
  %8 = getelementptr inbounds %struct.sat_solver_t, ptr %7, i32 0, i32 2
  %9 = load i32, ptr %8, align 8
  %10 = icmp ne i32 %6, %9
  br i1 %10, label %11, label %14

11:                                               ; preds = %1
  %12 = load ptr, ptr %2, align 8
  %13 = call i32 @sat_solver_simplify(ptr noundef %12)
  store i32 %13, ptr %3, align 4
  br label %14

14:                                               ; preds = %11, %1
  ret void
}

; Function Attrs: nounwind uwtable
define internal i32 @Vec_IntSize(ptr noundef %0) #0 {
  %2 = alloca ptr, align 8
  store ptr %0, ptr %2, align 8
  %3 = load ptr, ptr %2, align 8
  %4 = getelementptr inbounds %struct.Vec_Int_t_, ptr %3, i32 0, i32 1
  %5 = load i32, ptr %4, align 4
  ret i32 %5
}

; Function Attrs: nounwind uwtable
define internal ptr @Vec_IntArray(ptr noundef %0) #0 {
  %2 = alloca ptr, align 8
  store ptr %0, ptr %2, align 8
  %3 = load ptr, ptr %2, align 8
  %4 = getelementptr inbounds %struct.Vec_Int_t_, ptr %3, i32 0, i32 2
  %5 = load ptr, ptr %4, align 8
  ret ptr %5
}

; Function Attrs: nounwind uwtable
define internal ptr @Vec_PtrEntry(ptr noundef %0, i32 noundef %1) #0 {
  %3 = alloca ptr, align 8
  %4 = alloca i32, align 4
  store ptr %0, ptr %3, align 8
  store i32 %1, ptr %4, align 4
  %5 = load ptr, ptr %3, align 8
  %6 = getelementptr inbounds %struct.Vec_Ptr_t_, ptr %5, i32 0, i32 2
  %7 = load ptr, ptr %6, align 8
  %8 = load i32, ptr %4, align 4
  %9 = sext i32 %8 to i64
  %10 = getelementptr inbounds ptr, ptr %7, i64 %9
  %11 = load ptr, ptr %10, align 8
  ret ptr %11
}

; Function Attrs: nounwind uwtable
define internal i32 @Vec_PtrSize(ptr noundef %0) #0 {
  %2 = alloca ptr, align 8
  store ptr %0, ptr %2, align 8
  %3 = load ptr, ptr %2, align 8
  %4 = getelementptr inbounds %struct.Vec_Ptr_t_, ptr %3, i32 0, i32 1
  %5 = load i32, ptr %4, align 4
  ret i32 %5
}

; Function Attrs: nounwind uwtable
define i32 @Pdr_ManFindInvariantStart(ptr noundef %0) #0 {
  %2 = alloca i32, align 4
  %3 = alloca ptr, align 8
  %4 = alloca ptr, align 8
  %5 = alloca i32, align 4
  %6 = alloca i32, align 4
  store ptr %0, ptr %3, align 8
  %7 = load ptr, ptr %3, align 8
  %8 = getelementptr inbounds %struct.Pdr_Man_t_, ptr %7, i32 0, i32 13
  %9 = load ptr, ptr %8, align 8
  %10 = call i32 @Vec_PtrSize(ptr noundef %9)
  %11 = sub nsw i32 %10, 1
  store i32 %11, ptr %6, align 4
  store i32 1, ptr %5, align 4
  br label %12

12:                                               ; preds = %32, %1
  %13 = load i32, ptr %5, align 4
  %14 = load i32, ptr %6, align 4
  %15 = add nsw i32 %14, 1
  %16 = icmp slt i32 %13, %15
  br i1 %16, label %17, label %23

17:                                               ; preds = %12
  %18 = load ptr, ptr %3, align 8
  %19 = getelementptr inbounds %struct.Pdr_Man_t_, ptr %18, i32 0, i32 14
  %20 = load ptr, ptr %19, align 8
  %21 = load i32, ptr %5, align 4
  %22 = call ptr @Vec_VecEntry(ptr noundef %20, i32 noundef %21)
  store ptr %22, ptr %4, align 8
  br label %23

23:                                               ; preds = %17, %12
  %24 = phi i1 [ false, %12 ], [ true, %17 ]
  br i1 %24, label %25, label %35

25:                                               ; preds = %23
  %26 = load ptr, ptr %4, align 8
  %27 = call i32 @Vec_PtrSize(ptr noundef %26)
  %28 = icmp eq i32 %27, 0
  br i1 %28, label %29, label %31

29:                                               ; preds = %25
  %30 = load i32, ptr %5, align 4
  store i32 %30, ptr %2, align 4
  br label %37

31:                                               ; preds = %25
  br label %32

32:                                               ; preds = %31
  %33 = load i32, ptr %5, align 4
  %34 = add nsw i32 %33, 1
  store i32 %34, ptr %5, align 4
  br label %12, !llvm.loop !12

35:                                               ; preds = %23
  %36 = load i32, ptr %6, align 4
  store i32 %36, ptr %2, align 4
  br label %37

37:                                               ; preds = %35, %29
  %38 = load i32, ptr %2, align 4
  ret i32 %38
}

; Function Attrs: nounwind uwtable
define internal i64 @Abc_Clock() #0 {
  %1 = alloca i64, align 8
  %2 = alloca %struct.timespec, align 8
  %3 = alloca i64, align 8
  %4 = call i32 @clock_gettime(i32 noundef 1, ptr noundef %2) #10
  %5 = icmp slt i32 %4, 0
  br i1 %5, label %6, label %7

6:                                                ; preds = %0
  store i64 -1, ptr %1, align 8
  br label %18

7:                                                ; preds = %0
  %8 = getelementptr inbounds %struct.timespec, ptr %2, i32 0, i32 0
  %9 = load i64, ptr %8, align 8
  %10 = mul nsw i64 %9, 1000000
  store i64 %10, ptr %3, align 8
  %11 = getelementptr inbounds %struct.timespec, ptr %2, i32 0, i32 1
  %12 = load i64, ptr %11, align 8
  %13 = mul nsw i64 %12, 1000000
  %14 = sdiv i64 %13, 1000000000
  %15 = load i64, ptr %3, align 8
  %16 = add nsw i64 %15, %14
  store i64 %16, ptr %3, align 8
  %17 = load i64, ptr %3, align 8
  store i64 %17, ptr %1, align 8
  br label %18

18:                                               ; preds = %7, %6
  %19 = load i64, ptr %1, align 8
  ret i64 %19
}

; Function Attrs: nounwind uwtable
define void @Pdr_ManVerifyInvariant(ptr noundef %0) #0 {
  %2 = alloca ptr, align 8
  %3 = alloca ptr, align 8
  %4 = alloca ptr, align 8
  %5 = alloca ptr, align 8
  %6 = alloca ptr, align 8
  %7 = alloca i32, align 4
  %8 = alloca i32, align 4
  %9 = alloca i32, align 4
  %10 = alloca i32, align 4
  %11 = alloca i32, align 4
  %12 = alloca i64, align 8
  store ptr %0, ptr %2, align 8
  store i32 0, ptr %11, align 4
  %13 = call i64 @Abc_Clock()
  store i64 %13, ptr %12, align 8
  %14 = load ptr, ptr %2, align 8
  %15 = call i32 @Pdr_ManFindInvariantStart(ptr noundef %14)
  store i32 %15, ptr %8, align 4
  %16 = load ptr, ptr %2, align 8
  %17 = load i32, ptr %8, align 4
  %18 = call ptr @Pdr_ManCollectCubes(ptr noundef %16, i32 noundef %17)
  store ptr %18, ptr %5, align 8
  %19 = load ptr, ptr %2, align 8
  %20 = getelementptr inbounds %struct.Pdr_Man_t_, ptr %19, i32 0, i32 13
  %21 = load ptr, ptr %20, align 8
  %22 = call i32 @Vec_PtrSize(ptr noundef %21)
  store i32 %22, ptr %9, align 4
  %23 = load ptr, ptr %2, align 8
  %24 = load i32, ptr %9, align 4
  %25 = call ptr @Pdr_ManCreateSolver(ptr noundef %23, i32 noundef %24)
  store ptr %25, ptr %3, align 8
  store i32 0, ptr %7, align 4
  br label %26

26:                                               ; preds = %53, %1
  %27 = load i32, ptr %7, align 4
  %28 = load ptr, ptr %5, align 8
  %29 = call i32 @Vec_PtrSize(ptr noundef %28)
  %30 = icmp slt i32 %27, %29
  br i1 %30, label %31, label %35

31:                                               ; preds = %26
  %32 = load ptr, ptr %5, align 8
  %33 = load i32, ptr %7, align 4
  %34 = call ptr @Vec_PtrEntry(ptr noundef %32, i32 noundef %33)
  store ptr %34, ptr %6, align 8
  br label %35

35:                                               ; preds = %31, %26
  %36 = phi i1 [ false, %26 ], [ true, %31 ]
  br i1 %36, label %37, label %56

37:                                               ; preds = %35
  %38 = load ptr, ptr %2, align 8
  %39 = load i32, ptr %9, align 4
  %40 = load ptr, ptr %6, align 8
  %41 = call ptr @Pdr_ManCubeToLits(ptr noundef %38, i32 noundef %39, ptr noundef %40, i32 noundef 1, i32 noundef 0)
  store ptr %41, ptr %4, align 8
  %42 = load ptr, ptr %3, align 8
  %43 = load ptr, ptr %4, align 8
  %44 = call ptr @Vec_IntArray(ptr noundef %43)
  %45 = load ptr, ptr %4, align 8
  %46 = call ptr @Vec_IntArray(ptr noundef %45)
  %47 = load ptr, ptr %4, align 8
  %48 = call i32 @Vec_IntSize(ptr noundef %47)
  %49 = sext i32 %48 to i64
  %50 = getelementptr inbounds i32, ptr %46, i64 %49
  %51 = call i32 @sat_solver_addclause(ptr noundef %42, ptr noundef %44, ptr noundef %50)
  store i32 %51, ptr %10, align 4
  %52 = load ptr, ptr %3, align 8
  call void @sat_solver_compress(ptr noundef %52)
  br label %53

53:                                               ; preds = %37
  %54 = load i32, ptr %7, align 4
  %55 = add nsw i32 %54, 1
  store i32 %55, ptr %7, align 4
  br label %26, !llvm.loop !28

56:                                               ; preds = %35
  store i32 0, ptr %7, align 4
  br label %57

57:                                               ; preds = %90, %56
  %58 = load i32, ptr %7, align 4
  %59 = load ptr, ptr %5, align 8
  %60 = call i32 @Vec_PtrSize(ptr noundef %59)
  %61 = icmp slt i32 %58, %60
  br i1 %61, label %62, label %66

62:                                               ; preds = %57
  %63 = load ptr, ptr %5, align 8
  %64 = load i32, ptr %7, align 4
  %65 = call ptr @Vec_PtrEntry(ptr noundef %63, i32 noundef %64)
  store ptr %65, ptr %6, align 8
  br label %66

66:                                               ; preds = %62, %57
  %67 = phi i1 [ false, %57 ], [ true, %62 ]
  br i1 %67, label %68, label %93

68:                                               ; preds = %66
  %69 = load ptr, ptr %2, align 8
  %70 = load i32, ptr %9, align 4
  %71 = load ptr, ptr %6, align 8
  %72 = call ptr @Pdr_ManCubeToLits(ptr noundef %69, i32 noundef %70, ptr noundef %71, i32 noundef 0, i32 noundef 1)
  store ptr %72, ptr %4, align 8
  %73 = load ptr, ptr %3, align 8
  %74 = load ptr, ptr %4, align 8
  %75 = call ptr @Vec_IntArray(ptr noundef %74)
  %76 = load ptr, ptr %4, align 8
  %77 = call ptr @Vec_IntArray(ptr noundef %76)
  %78 = load ptr, ptr %4, align 8
  %79 = call i32 @Vec_IntSize(ptr noundef %78)
  %80 = sext i32 %79 to i64
  %81 = getelementptr inbounds i32, ptr %77, i64 %80
  %82 = call i32 @sat_solver_solve(ptr noundef %73, ptr noundef %75, ptr noundef %81, i64 noundef 0, i64 noundef 0, i64 noundef 0, i64 noundef 0)
  store i32 %82, ptr %10, align 4
  %83 = load i32, ptr %10, align 4
  %84 = icmp ne i32 %83, -1
  br i1 %84, label %85, label %89

85:                                               ; preds = %68
  %86 = load i32, ptr %7, align 4
  call void (i32, ptr, ...) @Abc_Print(i32 noundef 1, ptr noundef @.str.44, i32 noundef %86)
  %87 = load i32, ptr %11, align 4
  %88 = add nsw i32 %87, 1
  store i32 %88, ptr %11, align 4
  br label %89

89:                                               ; preds = %85, %68
  br label %90

90:                                               ; preds = %89
  %91 = load i32, ptr %7, align 4
  %92 = add nsw i32 %91, 1
  store i32 %92, ptr %7, align 4
  br label %57, !llvm.loop !29

93:                                               ; preds = %66
  %94 = load i32, ptr %11, align 4
  %95 = icmp ne i32 %94, 0
  br i1 %95, label %96, label %98

96:                                               ; preds = %93
  %97 = load i32, ptr %11, align 4
  call void (i32, ptr, ...) @Abc_Print(i32 noundef 1, ptr noundef @.str.45, i32 noundef %97)
  br label %104

98:                                               ; preds = %93
  %99 = load ptr, ptr %5, align 8
  %100 = call i32 @Vec_PtrSize(ptr noundef %99)
  call void (i32, ptr, ...) @Abc_Print(i32 noundef 1, ptr noundef @.str.46, i32 noundef %100)
  %101 = call i64 @Abc_Clock()
  %102 = load i64, ptr %12, align 8
  %103 = sub nsw i64 %101, %102
  call void @Abc_PrintTime(i32 noundef 1, ptr noundef @.str.5, i64 noundef %103)
  br label %104

104:                                              ; preds = %98, %96
  %105 = load ptr, ptr %5, align 8
  call void @Vec_PtrFree(ptr noundef %105)
  ret void
}