; Function Attrs: nounwind uwtable
define void @Pdr_ManVerifyInvariant(ptr noundef %0) local_unnamed_addr #0 {
  %2 = alloca %struct.timespec, align 8
  %3 = alloca %struct.timespec, align 8
  call void @llvm.lifetime.start.p0(i64 16, ptr nonnull %3)
  %4 = call i32 @clock_gettime(i32 noundef 1, ptr noundef nonnull %3) #18
  %5 = icmp slt i32 %4, 0
  br i1 %5, label %Abc_Clock.exit, label %6

6:                                                ; preds = %1
  %7 = load i64, ptr %3, align 8
  %.neg58 = mul i64 %7, -1000000
  %8 = getelementptr inbounds nuw i8, ptr %3, i64 8
  %9 = load i64, ptr %8, align 8
  %.neg = sdiv i64 %9, -1000
  %.neg59 = add i64 %.neg, %.neg58
  br label %Abc_Clock.exit

Abc_Clock.exit:                                   ; preds = %1, %6
  %.0.i.neg = phi i64 [ %.neg59, %6 ], [ 1, %1 ]
  call void @llvm.lifetime.end.p0(i64 16, ptr nonnull %3)
  %10 = getelementptr inbounds nuw i8, ptr %0, i64 104
  %11 = load ptr, ptr %10, align 8
  %12 = getelementptr i8, ptr %11, i64 4
  %.val10.i = load i32, ptr %12, align 4
  %13 = add nsw i32 %.val10.i, -1
  %14 = icmp sgt i32 %.val10.i, 1
  br i1 %14, label %.lr.ph.i, label %Pdr_ManFindInvariantStart.exit

.lr.ph.i:                                         ; preds = %Abc_Clock.exit
  %15 = getelementptr inbounds nuw i8, ptr %0, i64 112
  %16 = load ptr, ptr %15, align 8
  %17 = getelementptr i8, ptr %16, i64 8
  %.val11.i = load ptr, ptr %17, align 8
  %wide.trip.count.i = zext nneg i32 %.val10.i to i64
  br label %18

18:                                               ; preds = %23, %.lr.ph.i
  %indvars.iv.i = phi i64 [ 1, %.lr.ph.i ], [ %indvars.iv.next.i, %23 ]
  %19 = getelementptr inbounds nuw ptr, ptr %.val11.i, i64 %indvars.iv.i
  %20 = load ptr, ptr %19, align 8
  %21 = getelementptr i8, ptr %20, i64 4
  %.val.i = load i32, ptr %21, align 4
  %22 = icmp eq i32 %.val.i, 0
  br i1 %22, label %.critedge.loopexit.split.loop.exit16.i, label %23

23:                                               ; preds = %18
  %indvars.iv.next.i = add nuw nsw i64 %indvars.iv.i, 1
  %exitcond.not.i = icmp eq i64 %indvars.iv.next.i, %wide.trip.count.i
  br i1 %exitcond.not.i, label %Pdr_ManFindInvariantStart.exit, label %18, !llvm.loop !12

.critedge.loopexit.split.loop.exit16.i:           ; preds = %18
  %24 = trunc nuw nsw i64 %indvars.iv.i to i32
  br label %Pdr_ManFindInvariantStart.exit

Pdr_ManFindInvariantStart.exit:                   ; preds = %23, %Abc_Clock.exit, %.critedge.loopexit.split.loop.exit16.i
  %.0.i54 = phi i32 [ %13, %Abc_Clock.exit ], [ %24, %.critedge.loopexit.split.loop.exit16.i ], [ %13, %23 ]
  %25 = call ptr @Pdr_ManCollectCubes(ptr noundef %0, i32 noundef %.0.i54)
  %26 = load ptr, ptr %10, align 8
  %27 = getelementptr i8, ptr %26, i64 4
  %.val45 = load i32, ptr %27, align 4
  %28 = call ptr @Pdr_ManCreateSolver(ptr noundef %0, i32 noundef %.val45) #18
  %29 = getelementptr i8, ptr %25, i64 4
  %.val44 = load i32, ptr %29, align 4
  %30 = icmp sgt i32 %.val44, 0
  br i1 %30, label %.lr.ph, label %.critedge2.thread

.lr.ph:                                           ; preds = %Pdr_ManFindInvariantStart.exit
  %31 = getelementptr i8, ptr %25, i64 8
  %.val47 = load ptr, ptr %31, align 8
  %32 = getelementptr inbounds nuw i8, ptr %28, i64 12
  %33 = getelementptr inbounds nuw i8, ptr %28, i64 8
  %wide.trip.count = zext nneg i32 %.val44 to i64
  br label %35

.lr.ph64:                                         ; preds = %sat_solver_compress.exit
  %34 = getelementptr i8, ptr %25, i64 8
  %.val46 = load ptr, ptr %34, align 8
  %wide.trip.count71 = zext nneg i32 %.val44 to i64
  br label %48

35:                                               ; preds = %.lr.ph, %sat_solver_compress.exit
  %indvars.iv = phi i64 [ 0, %.lr.ph ], [ %indvars.iv.next, %sat_solver_compress.exit ]
  %36 = getelementptr inbounds nuw ptr, ptr %.val47, i64 %indvars.iv
  %37 = load ptr, ptr %36, align 8
  %38 = call ptr @Pdr_ManCubeToLits(ptr noundef %0, i32 noundef %.val45, ptr noundef %37, i32 noundef 1, i32 noundef 0) #18
  %39 = getelementptr i8, ptr %38, i64 8
  %.val50 = load ptr, ptr %39, align 8
  %40 = getelementptr i8, ptr %38, i64 4
  %.val49 = load i32, ptr %40, align 4
  %41 = sext i32 %.val49 to i64
  %42 = getelementptr inbounds i32, ptr %.val50, i64 %41
  %43 = call i32 @sat_solver_addclause(ptr noundef %28, ptr noundef %.val50, ptr noundef %42) #18
  %44 = load i32, ptr %32, align 4
  %45 = load i32, ptr %33, align 8
  %.not.i = icmp eq i32 %44, %45
  br i1 %.not.i, label %sat_solver_compress.exit, label %46

46:                                               ; preds = %35
  %47 = call i32 @sat_solver_simplify(ptr noundef nonnull %28) #18
  br label %sat_solver_compress.exit

sat_solver_compress.exit:                         ; preds = %35, %46
  %indvars.iv.next = add nuw nsw i64 %indvars.iv, 1
  %exitcond.not = icmp eq i64 %indvars.iv.next, %wide.trip.count
  br i1 %exitcond.not, label %.lr.ph64, label %35, !llvm.loop !28

48:                                               ; preds = %.lr.ph64, %.critedge
  %indvars.iv68 = phi i64 [ 0, %.lr.ph64 ], [ %indvars.iv.next69, %.critedge ]
  %.063 = phi i32 [ 0, %.lr.ph64 ], [ %.1, %.critedge ]
  %49 = getelementptr inbounds nuw ptr, ptr %.val46, i64 %indvars.iv68
  %50 = load ptr, ptr %49, align 8
  %51 = call ptr @Pdr_ManCubeToLits(ptr noundef %0, i32 noundef %.val45, ptr noundef %50, i32 noundef 0, i32 noundef 1) #18
  %52 = getelementptr i8, ptr %51, i64 8
  %.val52 = load ptr, ptr %52, align 8
  %53 = getelementptr i8, ptr %51, i64 4
  %.val48 = load i32, ptr %53, align 4
  %54 = sext i32 %.val48 to i64
  %55 = getelementptr inbounds i32, ptr %.val52, i64 %54
  %56 = call i32 @sat_solver_solve(ptr noundef %28, ptr noundef %.val52, ptr noundef %55, i64 noundef 0, i64 noundef 0, i64 noundef 0, i64 noundef 0) #18
  %.not42 = icmp eq i32 %56, -1
  br i1 %.not42, label %.critedge, label %57

57:                                               ; preds = %48
  %58 = trunc nuw nsw i64 %indvars.iv68 to i32
  call void (i32, ptr, ...) @Abc_Print(i32 poison, ptr noundef nonnull @.str.44, i32 noundef %58)
  %59 = add nsw i32 %.063, 1
  br label %.critedge

.critedge:                                        ; preds = %48, %57
  %.1 = phi i32 [ %59, %57 ], [ %.063, %48 ]
  %indvars.iv.next69 = add nuw nsw i64 %indvars.iv68, 1
  %exitcond72.not = icmp eq i64 %indvars.iv.next69, %wide.trip.count71
  br i1 %exitcond72.not, label %.critedge2, label %48, !llvm.loop !29

.critedge2:                                       ; preds = %.critedge
  %.not = icmp eq i32 %.1, 0
  br i1 %.not, label %.critedge2.thread, label %60

60:                                               ; preds = %.critedge2
  call void (i32, ptr, ...) @Abc_Print(i32 poison, ptr noundef nonnull @.str.45, i32 noundef %.1)
  br label %73

.critedge2.thread:                                ; preds = %Pdr_ManFindInvariantStart.exit, %.critedge2
  call void (i32, ptr, ...) @Abc_Print(i32 poison, ptr noundef nonnull @.str.46, i32 noundef %.val44)
  call void @llvm.lifetime.start.p0(i64 16, ptr nonnull %2)
  %61 = call i32 @clock_gettime(i32 noundef 1, ptr noundef nonnull %2) #18
  %62 = icmp slt i32 %61, 0
  br i1 %62, label %Abc_Clock.exit56, label %63

63:                                               ; preds = %.critedge2.thread
  %64 = load i64, ptr %2, align 8
  %65 = mul nsw i64 %64, 1000000
  %66 = getelementptr inbounds nuw i8, ptr %2, i64 8
  %67 = load i64, ptr %66, align 8
  %68 = sdiv i64 %67, 1000
  %69 = add nsw i64 %68, %65
  br label %Abc_Clock.exit56

Abc_Clock.exit56:                                 ; preds = %.critedge2.thread, %63
  %.0.i55 = phi i64 [ %69, %63 ], [ -1, %.critedge2.thread ]
  call void @llvm.lifetime.end.p0(i64 16, ptr nonnull %2)
  %70 = add i64 %.0.i55, %.0.i.neg
  call void (i32, ptr, ...) @Abc_Print(i32 poison, ptr noundef nonnull @.str.58, ptr noundef nonnull @.str.5)
  %71 = sitofp i64 %70 to double
  %72 = fdiv double %71, 1.000000e+06
  call void (i32, ptr, ...) @Abc_Print(i32 poison, ptr noundef nonnull @.str.59, double noundef %72)
  br label %73

73:                                               ; preds = %Abc_Clock.exit56, %60
  %74 = getelementptr inbounds nuw i8, ptr %25, i64 8
  %75 = load ptr, ptr %74, align 8
  %.not.i57 = icmp eq ptr %75, null
  br i1 %.not.i57, label %Vec_PtrFree.exit, label %76

76:                                               ; preds = %73
  call void @free(ptr noundef nonnull %75) #18
  br label %Vec_PtrFree.exit

Vec_PtrFree.exit:                                 ; preds = %73, %76
  call void @free(ptr noundef nonnull %25) #18
  ret void
}